; Function Attrs: mustprogress uwtable
define dso_local void @_ZN4absl4Cord15DestroyCordSlowEv(ptr noundef nonnull readonly align 8 captures(none) dereferenceable(16) %0) local_unnamed_addr #3 align 2 {
  %2 = load i64, ptr %0, align 8, !tbaa !13
  %3 = add nsw i64 %2, -1
  %.not.i = icmp eq i64 %3, 0
  br i1 %.not.i, label %_ZN4absl13cord_internal9CordzInfo16MaybeUntrackCordEPS1_.exit, label %4, !prof !27

4:                                                ; preds = %1
  %5 = inttoptr i64 %3 to ptr
  tail call void @_ZN4absl13cord_internal9CordzInfo7UntrackEv(ptr noundef nonnull align 8 dereferenceable(1344) %5)
  br label %_ZN4absl13cord_internal9CordzInfo16MaybeUntrackCordEPS1_.exit

_ZN4absl13cord_internal9CordzInfo16MaybeUntrackCordEPS1_.exit: ; preds = %1, %4
  %6 = getelementptr inbounds nuw i8, ptr %0, i64 8
  %7 = load ptr, ptr %6, align 8, !tbaa !13
  %8 = getelementptr inbounds nuw i8, ptr %7, i64 8
  %9 = atomicrmw sub ptr %8, i32 2 acq_rel, align 4
  %.not.i1 = icmp eq i32 %9, 2
  br i1 %.not.i1, label %10, label %_ZN4absl13cord_internal7CordRep5UnrefEPS1_.exit, !prof !59

10:                                               ; preds = %_ZN4absl13cord_internal9CordzInfo16MaybeUntrackCordEPS1_.exit
  tail call void @_ZN4absl13cord_internal7CordRep7DestroyEPS1_(ptr noundef %7)
  br label %_ZN4absl13cord_internal7CordRep5UnrefEPS1_.exit

_ZN4absl13cord_internal7CordRep5UnrefEPS1_.exit:  ; preds = %_ZN4absl13cord_internal9CordzInfo16MaybeUntrackCordEPS1_.exit, %10
  ret void
}